; Function Attrs: mustprogress nofree norecurse nosync nounwind willreturn memory(read, argmem: readwrite, inaccessiblemem: none) uwtable
define internal noundef i32 @H5SM__get_refcount_bt2_cb(ptr noundef readonly captures(none) %0, ptr noundef writeonly captures(none) %1) #6 {
  %3 = load i8, ptr @H5SM_init_g, align 1, !tbaa !9, !range !11, !noundef !12
  %4 = trunc nuw i8 %3 to i1
  %5 = load i8, ptr @H5_libterm_g, align 1, !range !11
  %6 = trunc nuw i8 %5 to i1
  %7 = xor i1 %6, true
  %8 = select i1 %4, i1 true, i1 %7
  br i1 %8, label %9, label %10, !prof !13

9:                                                ; preds = %2
  tail call void @llvm.memcpy.p0.p0.i64(ptr noundef nonnull align 8 dereferenceable(32) %1, ptr noundef nonnull align 8 dereferenceable(32) %0, i64 32, i1 false), !tbaa.struct !95
  br label %10

10:                                               ; preds = %9, %2
  ret i32 0
}